; ModuleID = '36/1276.c'
source_filename = "36/1276.c"
target datalayout = "e-m:e-p270:32:32-p271:32:32-p272:64:64-i64:64-f80:128-n8:16:32:64-S128"
target triple = "x86_64-pc-linux-gnu"

@.str = private unnamed_addr constant [5 x i8] c"%s%s\00", align 1
@.str.1 = private unnamed_addr constant [5 x i8] c"YES\0A\00", align 1
@.str.2 = private unnamed_addr constant [4 x i8] c"NO\0A\00", align 1

; Function Attrs: noinline nounwind uwtable
define dso_local i32 @main(i32 %0, i8** %1) #0 {
  %3 = alloca i32, align 4
  %4 = alloca i32, align 4
  %5 = alloca i8**, align 8
  %6 = alloca [100 x i8], align 16
  %7 = alloca [100 x i8], align 16
  %8 = alloca i32, align 4
  %9 = alloca i32, align 4
  %10 = alloca i32, align 4
  %11 = alloca i32, align 4
  %12 = alloca i8, align 1
  %13 = alloca i8, align 1
  store i32 0, i32* %3, align 4
  store i32 %0, i32* %4, align 4
  store i8** %1, i8*** %5, align 8
  %14 = getelementptr inbounds [100 x i8], [100 x i8]* %6, i64 0, i64 0
  call void @llvm.memset.p0i8.i64(i8* align 16 %14, i8 0, i64 100, i1 false)
  %15 = getelementptr inbounds [100 x i8], [100 x i8]* %7, i64 0, i64 0
  call void @llvm.memset.p0i8.i64(i8* align 16 %15, i8 0, i64 100, i1 false)
  %16 = getelementptr inbounds [100 x i8], [100 x i8]* %6, i64 0, i64 0
  %17 = getelementptr inbounds [100 x i8], [100 x i8]* %7, i64 0, i64 0
  %18 = call i32 (i8*, ...) @__isoc99_scanf(i8* getelementptr inbounds ([5 x i8], [5 x i8]* @.str, i64 0, i64 0), i8* %16, i8* %17)
  %19 = getelementptr inbounds [100 x i8], [100 x i8]* %6, i64 0, i64 0
  %20 = call i64 @strlen(i8* %19) #4
  %21 = trunc i64 %20 to i32
  store i32 %21, i32* %10, align 4
  %22 = getelementptr inbounds [100 x i8], [100 x i8]* %7, i64 0, i64 0
  %23 = call i64 @strlen(i8* %22) #4
  %24 = trunc i64 %23 to i32
  store i32 %24, i32* %11, align 4
  store i32 0, i32* %8, align 4
  br label %25

25:                                               ; preds = %72, %2
  %26 = load i32, i32* %8, align 4
  %27 = load i32, i32* %10, align 4
  %28 = icmp slt i32 %26, %27
  br i1 %28, label %29, label %75

29:                                               ; preds = %25
  %30 = load i32, i32* %10, align 4
  %31 = sub nsw i32 %30, 1
  store i32 %31, i32* %9, align 4
  br label %32

32:                                               ; preds = %68, %29
  %33 = load i32, i32* %9, align 4
  %34 = load i32, i32* %8, align 4
  %35 = icmp sgt i32 %33, %34
  br i1 %35, label %36, label %71

36:                                               ; preds = %32
  %37 = load i32, i32* %9, align 4
  %38 = sub nsw i32 %37, 1
  %39 = sext i32 %38 to i64
  %40 = getelementptr inbounds [100 x i8], [100 x i8]* %6, i64 0, i64 %39
  %41 = load i8, i8* %40, align 1
  %42 = sext i8 %41 to i32
  %43 = load i32, i32* %9, align 4
  %44 = sext i32 %43 to i64
  %45 = getelementptr inbounds [100 x i8], [100 x i8]* %6, i64 0, i64 %44
  %46 = load i8, i8* %45, align 1
  %47 = sext i8 %46 to i32
  %48 = icmp sgt i32 %42, %47
  br i1 %48, label %49, label %67

49:                                               ; preds = %36
  %50 = load i32, i32* %9, align 4
  %51 = sub nsw i32 %50, 1
  %52 = sext i32 %51 to i64
  %53 = getelementptr inbounds [100 x i8], [100 x i8]* %6, i64 0, i64 %52
  %54 = load i8, i8* %53, align 1
  store i8 %54, i8* %12, align 1
  %55 = load i32, i32* %9, align 4
  %56 = sext i32 %55 to i64
  %57 = getelementptr inbounds [100 x i8], [100 x i8]* %6, i64 0, i64 %56
  %58 = load i8, i8* %57, align 1
  %59 = load i32, i32* %9, align 4
  %60 = sub nsw i32 %59, 1
  %61 = sext i32 %60 to i64
  %62 = getelementptr inbounds [100 x i8], [100 x i8]* %6, i64 0, i64 %61
  store i8 %58, i8* %62, align 1
  %63 = load i8, i8* %12, align 1
  %64 = load i32, i32* %9, align 4
  %65 = sext i32 %64 to i64
  %66 = getelementptr inbounds [100 x i8], [100 x i8]* %6, i64 0, i64 %65
  store i8 %63, i8* %66, align 1
  br label %67

67:                                               ; preds = %49, %36
  br label %68

68:                                               ; preds = %67
  %69 = load i32, i32* %9, align 4
  %70 = add nsw i32 %69, -1
  store i32 %70, i32* %9, align 4
  br label %32

71:                                               ; preds = %32
  br label %72

72:                                               ; preds = %71
  %73 = load i32, i32* %8, align 4
  %74 = add nsw i32 %73, 1
  store i32 %74, i32* %8, align 4
  br label %25

75:                                               ; preds = %25
  store i32 0, i32* %8, align 4
  br label %76

76:                                               ; preds = %123, %75
  %77 = load i32, i32* %8, align 4
  %78 = load i32, i32* %11, align 4
  %79 = icmp slt i32 %77, %78
  br i1 %79, label %80, label %126

80:                                               ; preds = %76
  %81 = load i32, i32* %11, align 4
  %82 = sub nsw i32 %81, 1
  store i32 %82, i32* %9, align 4
  br label %83

83:                                               ; preds = %119, %80
  %84 = load i32, i32* %9, align 4
  %85 = load i32, i32* %8, align 4
  %86 = icmp sgt i32 %84, %85
  br i1 %86, label %87, label %122

87:                                               ; preds = %83
  %88 = load i32, i32* %9, align 4
  %89 = sub nsw i32 %88, 1
  %90 = sext i32 %89 to i64
  %91 = getelementptr inbounds [100 x i8], [100 x i8]* %7, i64 0, i64 %90
  %92 = load i8, i8* %91, align 1
  %93 = sext i8 %92 to i32
  %94 = load i32, i32* %9, align 4
  %95 = sext i32 %94 to i64
  %96 = getelementptr inbounds [100 x i8], [100 x i8]* %7, i64 0, i64 %95
  %97 = load i8, i8* %96, align 1
  %98 = sext i8 %97 to i32
  %99 = icmp sgt i32 %93, %98
  br i1 %99, label %100, label %118

100:                                              ; preds = %87
  %101 = load i32, i32* %9, align 4
  %102 = sub nsw i32 %101, 1
  %103 = sext i32 %102 to i64
  %104 = getelementptr inbounds [100 x i8], [100 x i8]* %7, i64 0, i64 %103
  %105 = load i8, i8* %104, align 1
  store i8 %105, i8* %13, align 1
  %106 = load i32, i32* %9, align 4
  %107 = sext i32 %106 to i64
  %108 = getelementptr inbounds [100 x i8], [100 x i8]* %7, i64 0, i64 %107
  %109 = load i8, i8* %108, align 1
  %110 = load i32, i32* %9, align 4
  %111 = sub nsw i32 %110, 1
  %112 = sext i32 %111 to i64
  %113 = getelementptr inbounds [100 x i8], [100 x i8]* %7, i64 0, i64 %112
  store i8 %109, i8* %113, align 1
  %114 = load i8, i8* %13, align 1
  %115 = load i32, i32* %9, align 4
  %116 = sext i32 %115 to i64
  %117 = getelementptr inbounds [100 x i8], [100 x i8]* %7, i64 0, i64 %116
  store i8 %114, i8* %117, align 1
  br label %118

118:                                              ; preds = %100, %87
  br label %119

119:                                              ; preds = %118
  %120 = load i32, i32* %9, align 4
  %121 = add nsw i32 %120, -1
  store i32 %121, i32* %9, align 4
  br label %83

122:                                              ; preds = %83
  br label %123

123:                                              ; preds = %122
  %124 = load i32, i32* %8, align 4
  %125 = add nsw i32 %124, 1
  store i32 %125, i32* %8, align 4
  br label %76

126:                                              ; preds = %76
  %127 = getelementptr inbounds [100 x i8], [100 x i8]* %6, i64 0, i64 0
  %128 = getelementptr inbounds [100 x i8], [100 x i8]* %7, i64 0, i64 0
  %129 = call i32 @strcmp(i8* %127, i8* %128) #4
  %130 = icmp eq i32 %129, 0
  br i1 %130, label %131, label %133

131:                                              ; preds = %126
  %132 = call i32 (i8*, ...) @printf(i8* getelementptr inbounds ([5 x i8], [5 x i8]* @.str.1, i64 0, i64 0))
  br label %135

133:                                              ; preds = %126
  %134 = call i32 (i8*, ...) @printf(i8* getelementptr inbounds ([4 x i8], [4 x i8]* @.str.2, i64 0, i64 0))
  br label %135

135:                                              ; preds = %133, %131
  ret i32 0
}

; Function Attrs: argmemonly nounwind willreturn
declare void @llvm.memset.p0i8.i64(i8* nocapture writeonly, i8, i64, i1 immarg) #1

declare dso_local i32 @__isoc99_scanf(i8*, ...) #2

; Function Attrs: nounwind readonly
declare dso_local i64 @strlen(i8*) #3

; Function Attrs: nounwind readonly
declare dso_local i32 @strcmp(i8*, i8*) #3

declare dso_local i32 @printf(i8*, ...) #2


!llvm.module.flags = !{!0}
!llvm.ident = !{!1}

!0 = !{i32 1, !"wchar_size", i32 4}
!1 = !{!"clang version 10.0.0-4ubuntu1 "}
